target datalayout = "e-m:e-p270:32:32-p271:32:32-p272:64:64-i64:64-i128:128-f80:128-n8:16:32:64-S128"
target triple = "x86_64-pc-linux-gnu"

%struct.lexbor_bst = type { ptr, ptr, i64 }

; Function Attrs: nounwind uwtable
define hidden i32 @lexbor_bst_init(ptr noundef %0, i64 noundef %1) #0 {
  %3 = alloca i32, align 4
  %4 = alloca ptr, align 8
  %5 = alloca i64, align 8
  %6 = alloca i32, align 4
  store ptr %0, ptr %4, align 8
  store i64 %1, ptr %5, align 8
  %7 = load ptr, ptr %4, align 8
  %8 = icmp eq ptr %7, null
  br i1 %8, label %9, label %10

9:                                                ; preds = %2
  store i32 3, ptr %3, align 4
  br label %32

10:                                               ; preds = %2
  %11 = load i64, ptr %5, align 8
  %12 = icmp eq i64 %11, 0
  br i1 %12, label %13, label %14

13:                                               ; preds = %10
  store i32 9, ptr %3, align 4
  br label %32

14:                                               ; preds = %10
  %15 = call ptr @lexbor_dobject_create()
  %16 = load ptr, ptr %4, align 8
  %17 = getelementptr inbounds %struct.lexbor_bst, ptr %16, i32 0, i32 0
  store ptr %15, ptr %17, align 8
  %18 = load ptr, ptr %4, align 8
  %19 = getelementptr inbounds %struct.lexbor_bst, ptr %18, i32 0, i32 0
  %20 = load ptr, ptr %19, align 8
  %21 = load i64, ptr %5, align 8
  %22 = call i32 @lexbor_dobject_init(ptr noundef %20, i64 noundef %21, i64 noundef 48)
  store i32 %22, ptr %6, align 4
  %23 = load i32, ptr %6, align 4
  %24 = icmp ne i32 %23, 0
  br i1 %24, label %25, label %27

25:                                               ; preds = %14
  %26 = load i32, ptr %6, align 4
  store i32 %26, ptr %3, align 4
  br label %32

27:                                               ; preds = %14
  %28 = load ptr, ptr %4, align 8
  %29 = getelementptr inbounds %struct.lexbor_bst, ptr %28, i32 0, i32 1
  store ptr null, ptr %29, align 8
  %30 = load ptr, ptr %4, align 8
  %31 = getelementptr inbounds %struct.lexbor_bst, ptr %30, i32 0, i32 2
  store i64 0, ptr %31, align 8
  store i32 0, ptr %3, align 4
  br label %32

32:                                               ; preds = %27, %25, %13, %9
  %33 = load i32, ptr %3, align 4
  ret i32 %33
}