; Function Attrs: nounwind uwtable
define hidden i32 @lexbor_bst_init(ptr noundef writeonly %0, i64 noundef %1) local_unnamed_addr #0 {
  %3 = icmp eq ptr %0, null
  br i1 %3, label %11, label %4

4:                                                ; preds = %2
  %5 = icmp eq i64 %1, 0
  br i1 %5, label %11, label %6

6:                                                ; preds = %4
  %7 = tail call ptr @lexbor_dobject_create() #5
  store ptr %7, ptr %0, align 8
  %8 = tail call i32 @lexbor_dobject_init(ptr noundef %7, i64 noundef %1, i64 noundef 48) #5
  %.not = icmp eq i32 %8, 0
  br i1 %.not, label %9, label %11

9:                                                ; preds = %6
  %10 = getelementptr inbounds i8, ptr %0, i64 8
  tail call void @llvm.memset.p0.i64(ptr noundef nonnull align 8 dereferenceable(16) %10, i8 0, i64 16, i1 false)
  br label %11

11:                                               ; preds = %6, %4, %2, %9
  %.0 = phi i32 [ 0, %9 ], [ 3, %2 ], [ 9, %4 ], [ %8, %6 ]
  ret i32 %.0
}